target datalayout = "e-m:e-p270:32:32-p271:32:32-p272:64:64-i64:64-i128:128-f80:128-n8:16:32:64-S128"
target triple = "x86_64-pc-linux-gnu"

%struct.Registers = type { i32, i32 }

; Function Attrs: nounwind uwtable
define dso_local zeroext i1 @try_use_registers(ptr noundef %0, ptr noundef %1) #0 {
  %3 = alloca i1, align 1
  %4 = alloca ptr, align 8
  %5 = alloca ptr, align 8
  store ptr %0, ptr %4, align 8
  store ptr %1, ptr %5, align 8
  %6 = load ptr, ptr %4, align 8
  %7 = getelementptr inbounds %struct.Registers, ptr %6, i32 0, i32 0
  %8 = load i32, ptr %7, align 4
  %9 = load ptr, ptr %5, align 8
  %10 = getelementptr inbounds %struct.Registers, ptr %9, i32 0, i32 0
  %11 = load i32, ptr %10, align 4
  %12 = icmp ult i32 %8, %11
  br i1 %12, label %13, label %14

13:                                               ; preds = %2
  store i1 false, ptr %3, align 1
  br label %38

14:                                               ; preds = %2
  %15 = load ptr, ptr %4, align 8
  %16 = getelementptr inbounds %struct.Registers, ptr %15, i32 0, i32 1
  %17 = load i32, ptr %16, align 4
  %18 = load ptr, ptr %5, align 8
  %19 = getelementptr inbounds %struct.Registers, ptr %18, i32 0, i32 1
  %20 = load i32, ptr %19, align 4
  %21 = icmp ult i32 %17, %20
  br i1 %21, label %22, label %23

22:                                               ; preds = %14
  store i1 false, ptr %3, align 1
  br label %38

23:                                               ; preds = %14
  %24 = load ptr, ptr %5, align 8
  %25 = getelementptr inbounds %struct.Registers, ptr %24, i32 0, i32 1
  %26 = load i32, ptr %25, align 4
  %27 = load ptr, ptr %4, align 8
  %28 = getelementptr inbounds %struct.Registers, ptr %27, i32 0, i32 1
  %29 = load i32, ptr %28, align 4
  %30 = sub i32 %29, %26
  store i32 %30, ptr %28, align 4
  %31 = load ptr, ptr %5, align 8
  %32 = getelementptr inbounds %struct.Registers, ptr %31, i32 0, i32 0
  %33 = load i32, ptr %32, align 4
  %34 = load ptr, ptr %4, align 8
  %35 = getelementptr inbounds %struct.Registers, ptr %34, i32 0, i32 0
  %36 = load i32, ptr %35, align 4
  %37 = sub i32 %36, %33
  store i32 %37, ptr %35, align 4
  store i1 true, ptr %3, align 1
  br label %38

38:                                               ; preds = %23, %22, %13
  %39 = load i1, ptr %3, align 1
  ret i1 %39
}