; Function Attrs: mustprogress nofree norecurse nosync nounwind willreturn memory(argmem: readwrite) uwtable
define dso_local noundef zeroext i1 @try_use_registers(ptr nocapture noundef %0, ptr nocapture noundef readonly %1) local_unnamed_addr #0 {
  %3 = load i32, ptr %0, align 4
  %4 = load i32, ptr %1, align 4
  %5 = icmp ult i32 %3, %4
  br i1 %5, label %16, label %6

6:                                                ; preds = %2
  %7 = getelementptr inbounds i8, ptr %0, i64 4
  %8 = load i32, ptr %7, align 4
  %9 = getelementptr inbounds i8, ptr %1, i64 4
  %10 = load i32, ptr %9, align 4
  %11 = icmp ult i32 %8, %10
  br i1 %11, label %16, label %12

12:                                               ; preds = %6
  %13 = sub i32 %8, %10
  store i32 %13, ptr %7, align 4
  %14 = load i32, ptr %1, align 4
  %15 = sub i32 %3, %14
  store i32 %15, ptr %0, align 4
  br label %16

16:                                               ; preds = %6, %2, %12
  %.0 = phi i1 [ true, %12 ], [ false, %2 ], [ false, %6 ]
  ret i1 %.0
}